; ModuleID = 'source-C-CXX/14/2209.cpp'
source_filename = "source-C-CXX/14/2209.cpp"
target datalayout = "e-m:e-p270:32:32-p271:32:32-p272:64:64-i64:64-f80:128-n8:16:32:64-S128"
target triple = "x86_64-pc-linux-gnu"

%"class.std::ios_base::Init" = type { i8 }
%"class.std::basic_istream" = type { i32 (...)**, i64, %"class.std::basic_ios" }
%"class.std::basic_ios" = type { %"class.std::ios_base", %"class.std::basic_ostream"*, i8, i8, %"class.std::basic_streambuf"*, %"class.std::ctype"*, %"class.std::num_put"*, %"class.std::num_get"* }
%"class.std::ios_base" = type { i32 (...)**, i64, i64, i32, i32, i32, %"struct.std::ios_base::_Callback_list"*, %"struct.std::ios_base::_Words", [8 x %"struct.std::ios_base::_Words"], i32, %"struct.std::ios_base::_Words"*, %"class.std::locale" }
%"struct.std::ios_base::_Callback_list" = type { %"struct.std::ios_base::_Callback_list"*, void (i32, %"class.std::ios_base"*, i32)*, i32, i32 }
%"struct.std::ios_base::_Words" = type { i8*, i64 }
%"class.std::locale" = type { %"class.std::locale::_Impl"* }
%"class.std::locale::_Impl" = type { i32, %"class.std::locale::facet"**, i64, %"class.std::locale::facet"**, i8** }
%"class.std::locale::facet" = type <{ i32 (...)**, i32, [4 x i8] }>
%"class.std::basic_ostream" = type { i32 (...)**, %"class.std::basic_ios" }
%"class.std::basic_streambuf" = type { i32 (...)**, i8*, i8*, i8*, i8*, i8*, i8*, %"class.std::locale" }
%"class.std::ctype" = type <{ %"class.std::locale::facet.base", [4 x i8], %struct.__locale_struct*, i8, [7 x i8], i32*, i32*, i16*, i8, [256 x i8], [256 x i8], i8, [6 x i8] }>
%"class.std::locale::facet.base" = type <{ i32 (...)**, i32 }>
%struct.__locale_struct = type { [13 x %struct.__locale_data*], i16*, i32*, i32*, [13 x i8*] }
%struct.__locale_data = type opaque
%"class.std::num_put" = type { %"class.std::locale::facet.base", [4 x i8] }
%"class.std::num_get" = type { %"class.std::locale::facet.base", [4 x i8] }

@_ZStL8__ioinit = internal global %"class.std::ios_base::Init" zeroinitializer, align 1
@__dso_handle = external hidden global i8
@_ZSt3cin = external global %"class.std::basic_istream", align 8
@_ZSt4cout = external global %"class.std::basic_ostream", align 8
@llvm.global_ctors = appending global [1 x { i32, void ()*, i8* }] [{ i32, void ()*, i8* } { i32 65535, void ()* @_GLOBAL__sub_I_2209.cpp, i8* null }]

declare void @_ZNSt8ios_base4InitC1Ev(%"class.std::ios_base::Init"* nonnull align 1 dereferenceable(1)) unnamed_addr #0

; Function Attrs: nounwind
declare void @_ZNSt8ios_base4InitD1Ev(%"class.std::ios_base::Init"* nonnull align 1 dereferenceable(1)) unnamed_addr #1

; Function Attrs: nofree nounwind
declare i32 @__cxa_atexit(void (i8*)*, i8*, i8*) local_unnamed_addr #2

; Function Attrs: mustprogress norecurse sspstrong uwtable
define dso_local i32 @main() local_unnamed_addr #3 {
  %1 = alloca [1000 x [1000 x i32]], align 16
  %2 = alloca [4000 x i32], align 16
  %3 = alloca [4000 x i32], align 16
  %4 = alloca i32, align 4
  %5 = bitcast [1000 x [1000 x i32]]* %1 to i8*
  call void @llvm.lifetime.start.p0i8(i64 4000000, i8* nonnull %5) #6
  %6 = bitcast [4000 x i32]* %2 to i8*
  call void @llvm.lifetime.start.p0i8(i64 16000, i8* nonnull %6) #6
  %7 = bitcast [4000 x i32]* %3 to i8*
  call void @llvm.lifetime.start.p0i8(i64 16000, i8* nonnull %7) #6
  %8 = bitcast i32* %4 to i8*
  call void @llvm.lifetime.start.p0i8(i64 4, i8* nonnull %8) #6
  %9 = call nonnull align 8 dereferenceable(16) %"class.std::basic_istream"* @_ZNSirsERi(%"class.std::basic_istream"* nonnull align 8 dereferenceable(16) @_ZSt3cin, i32* nonnull align 4 dereferenceable(4) %4)
  %10 = load i32, i32* %4, align 4, !tbaa !5
  %11 = icmp sgt i32 %10, 0
  br i1 %11, label %12, label %19

12:                                               ; preds = %0, %37
  %13 = phi i32 [ %38, %37 ], [ %10, %0 ]
  %14 = phi i64 [ %41, %37 ], [ 0, %0 ]
  %15 = phi i32 [ %39, %37 ], [ 0, %0 ]
  %16 = icmp sgt i32 %13, 0
  br i1 %16, label %17, label %37

17:                                               ; preds = %12
  %18 = trunc i64 %14 to i32
  br label %43

19:                                               ; preds = %37, %0
  %20 = phi i32 [ 0, %0 ], [ %39, %37 ]
  %21 = add nsw i32 %20, -1
  %22 = sext i32 %21 to i64
  %23 = getelementptr inbounds [4000 x i32], [4000 x i32]* %2, i64 0, i64 %22
  %24 = load i32, i32* %23, align 4, !tbaa !5
  %25 = getelementptr inbounds [4000 x i32], [4000 x i32]* %2, i64 0, i64 0
  %26 = load i32, i32* %25, align 16, !tbaa !5
  %27 = xor i32 %26, -1
  %28 = add i32 %24, %27
  %29 = getelementptr inbounds [4000 x i32], [4000 x i32]* %3, i64 0, i64 %22
  %30 = load i32, i32* %29, align 4, !tbaa !5
  %31 = getelementptr inbounds [4000 x i32], [4000 x i32]* %3, i64 0, i64 0
  %32 = load i32, i32* %31, align 16, !tbaa !5
  %33 = xor i32 %32, -1
  %34 = add i32 %30, %33
  %35 = mul nsw i32 %34, %28
  %36 = call nonnull align 8 dereferenceable(8) %"class.std::basic_ostream"* @_ZNSolsEi(%"class.std::basic_ostream"* nonnull align 8 dereferenceable(8) @_ZSt4cout, i32 %35)
  call void @llvm.lifetime.end.p0i8(i64 4, i8* nonnull %8) #6
  call void @llvm.lifetime.end.p0i8(i64 16000, i8* nonnull %7) #6
  call void @llvm.lifetime.end.p0i8(i64 16000, i8* nonnull %6) #6
  call void @llvm.lifetime.end.p0i8(i64 4000000, i8* nonnull %5) #6
  ret i32 0

37:                                               ; preds = %56, %12
  %38 = phi i32 [ %13, %12 ], [ %59, %56 ]
  %39 = phi i32 [ %15, %12 ], [ %57, %56 ]
  %40 = sext i32 %38 to i64
  %41 = add nuw nsw i64 %14, 1
  %42 = icmp slt i64 %41, %40
  br i1 %42, label %12, label %19, !llvm.loop !9

43:                                               ; preds = %17, %56
  %44 = phi i64 [ 0, %17 ], [ %58, %56 ]
  %45 = phi i32 [ %15, %17 ], [ %57, %56 ]
  %46 = getelementptr inbounds [1000 x [1000 x i32]], [1000 x [1000 x i32]]* %1, i64 0, i64 %14, i64 %44
  %47 = call nonnull align 8 dereferenceable(16) %"class.std::basic_istream"* @_ZNSirsERi(%"class.std::basic_istream"* nonnull align 8 dereferenceable(16) @_ZSt3cin, i32* nonnull align 4 dereferenceable(4) %46)
  %48 = load i32, i32* %46, align 4, !tbaa !5
  %49 = icmp eq i32 %48, 0
  br i1 %49, label %50, label %56

50:                                               ; preds = %43
  %51 = sext i32 %45 to i64
  %52 = getelementptr inbounds [4000 x i32], [4000 x i32]* %2, i64 0, i64 %51
  store i32 %18, i32* %52, align 4, !tbaa !5
  %53 = add nsw i32 %45, 1
  %54 = getelementptr inbounds [4000 x i32], [4000 x i32]* %3, i64 0, i64 %51
  %55 = trunc i64 %44 to i32
  store i32 %55, i32* %54, align 4, !tbaa !5
  br label %56

56:                                               ; preds = %43, %50
  %57 = phi i32 [ %53, %50 ], [ %45, %43 ]
  %58 = add nuw nsw i64 %44, 1
  %59 = load i32, i32* %4, align 4, !tbaa !5
  %60 = sext i32 %59 to i64
  %61 = icmp slt i64 %58, %60
  br i1 %61, label %43, label %37, !llvm.loop !12
}

; Function Attrs: argmemonly mustprogress nofree nosync nounwind willreturn
declare void @llvm.lifetime.start.p0i8(i64 immarg, i8* nocapture) #4

declare nonnull align 8 dereferenceable(16) %"class.std::basic_istream"* @_ZNSirsERi(%"class.std::basic_istream"* nonnull align 8 dereferenceable(16), i32* nonnull align 4 dereferenceable(4)) local_unnamed_addr #0

; Function Attrs: argmemonly mustprogress nofree nosync nounwind willreturn
declare void @llvm.lifetime.end.p0i8(i64 immarg, i8* nocapture) #4

declare nonnull align 8 dereferenceable(8) %"class.std::basic_ostream"* @_ZNSolsEi(%"class.std::basic_ostream"* nonnull align 8 dereferenceable(8), i32) local_unnamed_addr #0

; Function Attrs: sspstrong uwtable
define internal void @_GLOBAL__sub_I_2209.cpp() #5 section ".text.startup" {
  tail call void @_ZNSt8ios_base4InitC1Ev(%"class.std::ios_base::Init"* nonnull align 1 dereferenceable(1) @_ZStL8__ioinit)
  %1 = tail call i32 @__cxa_atexit(void (i8*)* bitcast (void (%"class.std::ios_base::Init"*)* @_ZNSt8ios_base4InitD1Ev to void (i8*)*), i8* getelementptr inbounds (%"class.std::ios_base::Init", %"class.std::ios_base::Init"* @_ZStL8__ioinit, i64 0, i32 0), i8* nonnull @__dso_handle) #6
  ret void
}


!llvm.module.flags = !{!0, !1, !2, !3}
!llvm.ident = !{!4}

!0 = !{i32 1, !"wchar_size", i32 4}
!1 = !{i32 7, !"PIC Level", i32 2}
!2 = !{i32 7, !"PIE Level", i32 2}
!3 = !{i32 7, !"uwtable", i32 1}
!4 = !{!"clang version 13.0.0"}
!5 = !{!6, !6, i64 0}
!6 = !{!"int", !7, i64 0}
!7 = !{!"omnipotent char", !8, i64 0}
!8 = !{!"Simple C++ TBAA"}
!9 = distinct !{!9, !10, !11}
!10 = !{!"llvm.loop.mustprogress"}
!11 = !{!"llvm.loop.unswitch.partial.disable"}
!12 = distinct !{!12, !10}
